; ModuleID = '16/283.c'
source_filename = "16/283.c"
target datalayout = "e-m:e-p270:32:32-p271:32:32-p272:64:64-i64:64-f80:128-n8:16:32:64-S128"
target triple = "x86_64-pc-linux-gnu"

@.str = private unnamed_addr constant [3 x i8] c"%d\00", align 1
@.str.1 = private unnamed_addr constant [7 x i8] c"00001\0A\00", align 1
@.str.2 = private unnamed_addr constant [4 x i8] c"%d\0A\00", align 1
@.str.3 = private unnamed_addr constant [5 x i8] c"0%d\0A\00", align 1
@.str.4 = private unnamed_addr constant [6 x i8] c"00%d\0A\00", align 1
@.str.5 = private unnamed_addr constant [7 x i8] c"000%d\0A\00", align 1

; Function Attrs: noinline nounwind uwtable
define dso_local i32 @main() #0 {
  %1 = alloca i32, align 4
  %2 = alloca i32, align 4
  %3 = alloca i32, align 4
  %4 = alloca i32, align 4
  %5 = alloca i32, align 4
  %6 = alloca i32, align 4
  %7 = alloca i32, align 4
  store i32 0, i32* %1, align 4
  %8 = call i32 (i8*, ...) @__isoc99_scanf(i8* getelementptr inbounds ([3 x i8], [3 x i8]* @.str, i64 0, i64 0), i32* %2)
  %9 = load i32, i32* %2, align 4
  %10 = sdiv i32 %9, 10000
  store i32 %10, i32* %3, align 4
  %11 = load i32, i32* %2, align 4
  %12 = load i32, i32* %3, align 4
  %13 = mul nsw i32 %12, 10000
  %14 = sub nsw i32 %11, %13
  %15 = sdiv i32 %14, 1000
  store i32 %15, i32* %4, align 4
  %16 = load i32, i32* %2, align 4
  %17 = srem i32 %16, 1000
  %18 = sdiv i32 %17, 100
  store i32 %18, i32* %5, align 4
  %19 = load i32, i32* %2, align 4
  %20 = srem i32 %19, 100
  %21 = sdiv i32 %20, 10
  store i32 %21, i32* %6, align 4
  %22 = load i32, i32* %2, align 4
  %23 = srem i32 %22, 10
  store i32 %23, i32* %7, align 4
  %24 = load i32, i32* %3, align 4
  %25 = icmp ne i32 %24, 0
  br i1 %25, label %26, label %28

26:                                               ; preds = %0
  %27 = call i32 (i8*, ...) @printf(i8* getelementptr inbounds ([7 x i8], [7 x i8]* @.str.1, i64 0, i64 0))
  br label %124

28:                                               ; preds = %0
  %29 = load i32, i32* %4, align 4
  %30 = icmp ne i32 %29, 0
  br i1 %30, label %31, label %73

31:                                               ; preds = %28
  %32 = load i32, i32* %7, align 4
  %33 = icmp ne i32 %32, 0
  br i1 %33, label %34, label %46

34:                                               ; preds = %31
  %35 = load i32, i32* %7, align 4
  %36 = mul nsw i32 %35, 1000
  %37 = load i32, i32* %6, align 4
  %38 = mul nsw i32 %37, 100
  %39 = add nsw i32 %36, %38
  %40 = load i32, i32* %5, align 4
  %41 = mul nsw i32 %40, 10
  %42 = add nsw i32 %39, %41
  %43 = load i32, i32* %4, align 4
  %44 = add nsw i32 %42, %43
  %45 = call i32 (i8*, ...) @printf(i8* getelementptr inbounds ([4 x i8], [4 x i8]* @.str.2, i64 0, i64 0), i32 %44)
  br label %72

46:                                               ; preds = %31
  %47 = load i32, i32* %6, align 4
  %48 = icmp ne i32 %47, 0
  br i1 %48, label %49, label %58

49:                                               ; preds = %46
  %50 = load i32, i32* %6, align 4
  %51 = mul nsw i32 %50, 100
  %52 = load i32, i32* %5, align 4
  %53 = mul nsw i32 %52, 10
  %54 = add nsw i32 %51, %53
  %55 = load i32, i32* %4, align 4
  %56 = add nsw i32 %54, %55
  %57 = call i32 (i8*, ...) @printf(i8* getelementptr inbounds ([5 x i8], [5 x i8]* @.str.3, i64 0, i64 0), i32 %56)
  br label %71

58:                                               ; preds = %46
  %59 = load i32, i32* %5, align 4
  %60 = icmp ne i32 %59, 0
  br i1 %60, label %61, label %67

61:                                               ; preds = %58
  %62 = load i32, i32* %5, align 4
  %63 = mul nsw i32 %62, 10
  %64 = load i32, i32* %4, align 4
  %65 = add nsw i32 %63, %64
  %66 = call i32 (i8*, ...) @printf(i8* getelementptr inbounds ([6 x i8], [6 x i8]* @.str.4, i64 0, i64 0), i32 %65)
  br label %70

67:                                               ; preds = %58
  %68 = load i32, i32* %4, align 4
  %69 = call i32 (i8*, ...) @printf(i8* getelementptr inbounds ([7 x i8], [7 x i8]* @.str.5, i64 0, i64 0), i32 %68)
  br label %70

70:                                               ; preds = %67, %61
  br label %71

71:                                               ; preds = %70, %49
  br label %72

72:                                               ; preds = %71, %34
  br label %123

73:                                               ; preds = %28
  %74 = load i32, i32* %5, align 4
  %75 = icmp ne i32 %74, 0
  br i1 %75, label %76, label %102

76:                                               ; preds = %73
  %77 = load i32, i32* %7, align 4
  %78 = icmp ne i32 %77, 0
  br i1 %78, label %79, label %88

79:                                               ; preds = %76
  %80 = load i32, i32* %7, align 4
  %81 = mul nsw i32 %80, 100
  %82 = load i32, i32* %6, align 4
  %83 = mul nsw i32 %82, 10
  %84 = add nsw i32 %81, %83
  %85 = load i32, i32* %5, align 4
  %86 = add nsw i32 %84, %85
  %87 = call i32 (i8*, ...) @printf(i8* getelementptr inbounds ([4 x i8], [4 x i8]* @.str.2, i64 0, i64 0), i32 %86)
  br label %101

88:                                               ; preds = %76
  %89 = load i32, i32* %6, align 4
  %90 = icmp ne i32 %89, 0
  br i1 %90, label %91, label %97

91:                                               ; preds = %88
  %92 = load i32, i32* %6, align 4
  %93 = mul nsw i32 %92, 10
  %94 = load i32, i32* %5, align 4
  %95 = add nsw i32 %93, %94
  %96 = call i32 (i8*, ...) @printf(i8* getelementptr inbounds ([5 x i8], [5 x i8]* @.str.3, i64 0, i64 0), i32 %95)
  br label %100

97:                                               ; preds = %88
  %98 = load i32, i32* %5, align 4
  %99 = call i32 (i8*, ...) @printf(i8* getelementptr inbounds ([6 x i8], [6 x i8]* @.str.4, i64 0, i64 0), i32 %98)
  br label %100

100:                                              ; preds = %97, %91
  br label %101

101:                                              ; preds = %100, %79
  br label %122

102:                                              ; preds = %73
  %103 = load i32, i32* %6, align 4
  %104 = icmp ne i32 %103, 0
  br i1 %104, label %105, label %118

105:                                              ; preds = %102
  %106 = load i32, i32* %7, align 4
  %107 = icmp ne i32 %106, 0
  br i1 %107, label %108, label %114

108:                                              ; preds = %105
  %109 = load i32, i32* %7, align 4
  %110 = mul nsw i32 %109, 10
  %111 = load i32, i32* %6, align 4
  %112 = add nsw i32 %110, %111
  %113 = call i32 (i8*, ...) @printf(i8* getelementptr inbounds ([4 x i8], [4 x i8]* @.str.2, i64 0, i64 0), i32 %112)
  br label %117

114:                                              ; preds = %105
  %115 = load i32, i32* %6, align 4
  %116 = call i32 (i8*, ...) @printf(i8* getelementptr inbounds ([5 x i8], [5 x i8]* @.str.3, i64 0, i64 0), i32 %115)
  br label %117

117:                                              ; preds = %114, %108
  br label %121

118:                                              ; preds = %102
  %119 = load i32, i32* %2, align 4
  %120 = call i32 (i8*, ...) @printf(i8* getelementptr inbounds ([4 x i8], [4 x i8]* @.str.2, i64 0, i64 0), i32 %119)
  br label %121

121:                                              ; preds = %118, %117
  br label %122

122:                                              ; preds = %121, %101
  br label %123

123:                                              ; preds = %122, %72
  br label %124

124:                                              ; preds = %123, %26
  ret i32 0
}

declare dso_local i32 @__isoc99_scanf(i8*, ...) #1

declare dso_local i32 @printf(i8*, ...) #1


!llvm.module.flags = !{!0}
!llvm.ident = !{!1}

!0 = !{i32 1, !"wchar_size", i32 4}
!1 = !{!"clang version 10.0.0-4ubuntu1 "}
